ccopy_reg
_reconstructor
p0
(cAdaBoost
AdaBoost4
p1
c__builtin__
object
p2
Ntp3
Rp4
(dp5
S'votingWeights'
p6
(lp7
F0.8397645519947678
aF0.8077174623937213
aF0.7756703727926749
aF0.7436232831916285
aF0.7115761935905821
aF0.6955526487900588
aF0.6697187704381948
aF0.6376716808371485
aF0.6147809025506867
aF0.591236102027469
aF0.5745585349901896
aF0.5765206017004578
aF0.5552648790058863
aF0.6229561805101373
aF0.5343361674296926
aF0.5212557226945715
aF0.6092217135382603
aF0.5755395683453237
aF0.4977109221713538
aF0.486592544146501
aF0.4545454545454546
aF0.45192936559843033
aF0.4087638979725311
aF0.40418574231523874
aF0.5137344669718771
aF0.38521909744931326
aF0.49836494440810986
aF0.36559843034663175
aF0.42903858731196864
aF0.5775016350555919
aF0.43950294310006544
aF0.38521909744931326
aF0.42184434270765203
aF0.49411379986919557
aF0.4182472204054938
aF0.34401569653368214
aF0.44702419882276
aF0.3309352517985612
aF0.34499672988881624
aF0.3309352517985612
aF0.36559843034663175
aF0.33028122956180506
aF0.5045781556572924
aF0.329627207325049
aF0.3701765860039241
aF0.407782864617397
aF0.3080444735120994
aF0.5156965336821452
aF0.30019620667102687
aF0.4139960758665795
aF0.3227599738391105
aF0.29300196206671025
aF0.3597122302158273
aF0.32210595160235445
aF0.2988881621975147
aF0.48397645519947674
aF0.28449967298888157
aF0.3597122302158273
aF0.2831916285153695
aF0.3567691301504251
aF0.2818835840418574
aF0.36134728580771747
aF0.2812295618051014
aF0.36886854153041204
aF0.27730542838456507
aF0.27861347285807714
aF0.3204708960104643
aF0.5657292347939831
aF0.28384565075212553
aF0.302158273381295
aF0.3322432962720733
aF0.25997383911052974
aF0.3744277305428385
aF0.3662524525833878
aF0.3371484630477436
aF0.236429038587312
aF0.37181164159581426
aF0.21942446043165464
aF0.3714846304774362
aF0.21942446043165464
aF0.34597776324395024
aF0.21942446043165464
aF0.34597776324395024
aF0.21942446043165464
aF0.380967952910399
aF0.2563767168083715
aF0.52648790058862
aF0.25147155003270116
aF0.2272727272727273
aF0.3247220405493787
aF0.2177894048397645
aF0.5068672334859385
aF0.2220405493786789
aF0.36363636363636365
aF0.24296926095487248
aF0.25997383911052974
aF0.27240026160889474
aF0.2230215827338129
aF0.2531066056245912
aF0.22531066056245908
aF0.26814911706998035
aF0.28907782864617393
aF0.2645519947678221
aF0.1991497710922171
aF0.2861347285807717
aF0.1991497710922171
aF0.2861347285807717
aF0.1991497710922171
aF0.37704381948986265
aF0.23119686069326362
aF0.25866579463701767
aF0.1899934597776325
aF0.27240026160889474
aF0.20372792674950946
aF0.2593198168737737
aF0.17560497056899937
aF0.2841726618705036
aF0.17364290385873116
aF0.315565729234794
aF0.33682145192936563
aF0.23577501635055587
aF0.3152387181164159
aF0.18247220405493791
aF0.45192936559843033
aF0.21223021582733814
aF0.33126226291693917
aF0.2782864617396992
aF0.25049051667756705
aF0.22661870503597126
aF0.22792674950948333
aF0.1847612818835841
aF0.26618705035971224
aF0.2177894048397645
aF0.35644211903204714
aF0.20830608240680182
aF0.37213865271419233
aF0.24558534990189662
aF0.26913015042511446
aF0.1857423152387181
aF0.2854807063440157
aF0.17560497056899937
aF0.1275343361674297
aF0.33976455199476785
aF0.2782864617396992
aF0.20307390451275342
aF0.1370176586003924
aF0.16742969260954876
aF0.21975147155003272
aF0.15729234793982994
aF0.21517331589274036
aF0.1546762589928058
aF0.25572269457161545
aF0.30673642903858733
aF0.16742969260954876
aF0.1523871811641596
aF0.2272727272727273
aF0.14715500327011122
aF0.27730542838456507
aF0.16317854807063437
aF0.2998691955526488
aF0.16023544800523215
aF0.24493132766514059
aF0.14453891432308696
aF0.3041203400915631
aF0.36036625245258336
aF0.2426422498364944
aF0.13015042511445385
aF0.24231523871811644
aF0.11772400261608895
aF0.3051013734466972
aF0.10170045781556569
aF0.3247220405493787
aF0.09287115761935905
aF0.3982995421844343
aF0.08763897972531065
aF0.3371484630477436
aF0.09156311314584697
aF0.36461739699149776
aF0.14715500327011122
aF0.10104643557880966
aF0.15369522563767168
aF0.3351863963374755
aF0.10235448005232173
aF0.09712230215827333
aF0.17560497056899937
aF0.08077174623937211
aF0.25245258338783516
aF0.06572923479398296
aF0.27436232831916285
aF0.06572923479398296
aF0.4718770438194899
aF0.24460431654676262
aF0.06344015696533678
aF0.26716808371484635
aF0.06344015696533678
aF0.302812295618051
aF0.144211903204709
aF0.20372792674950946
aF0.0601700457815566
aF0.29594506213211247
aF0.05951602354480057
aF0.2809025506867233
aF0.30346631785480704
aF0.12524525833878353
aF0.06344015696533678
aF0.3037933289731851
aF0.07226945716154354
aF0.5058862001308044
aF0.21844342707652065
aF0.06834532374100721
aF0.28057553956834536
aF0.08829300196206669
aF0.065402223675605
aF0.12295618051013735
aF0.11347285807717467
aF0.09712230215827333
aF0.3835840418574231
aF0.14257684761281886
aF0.07848266841072593
aF0.1432308698495749
aF0.11020274689339438
aF0.08175277959450622
aF0.20470896010464357
aF0.07325049051667754
aF0.2034009156311315
aF0.05035971223021585
aF0.3453237410071942
aF0.11576193590582085
aF0.3433616742969261
aF0.0372792674950948
aF0.32210595160235445
aF0.034009156311314626
aF0.3234139960758666
aF0.09221713538260301
aF0.28482668410725964
aF0.055918901242642205
aF0.16939175931981687
aF0.0601700457815566
aF0.1795291039895357
aF0.046762589928057596
aF0.14551994767822107
aF0.10660562459123613
aF0.21124918247220403
aF0.060497056899934565
aF0.1981687377370831
aF0.03826030085022891
aF0.21942446043165464
aF0.03368214519293655
aF0.237410071942446
aF0.047743623283191594
aF0.17658600392413337
aF0.040876389797253054
aF0.17985611510791366
aF0.02779594506213212
aF0.28286461739699154
aF0.010137344669718718
aF0.30346631785480704
aF0.4551994767822106
aF0.07586657946370179
aF0.32733812949640284
aF0.022563767168083726
aF0.36265533028122954
aF0.10627861347285805
aF0.08829300196206669
aF0.21223021582733814
aF0.03433616742969259
aF0.14028776978417268
aF0.03237410071942448
aF0.2325049051667757
aF0.08862001308044476
aF0.2488554610856769
aF0.17920209287115763
aF0.07096141268803136
aF0.06409417920209282
aF0.06376716808371485
aF0.051340745585349956
aF0.03270111183780244
aF0.2995421844342707
aF0.019947678221059473
aF0.30739045127534337
aF0.003597122302158251
aF0.32504905166775666
aF0.0029431000654022155
aF0.3328973185088293
aF0.15304120340091565
aF0.17200784826684112
aF0.04839764551994763
aF0.18639633747547413
aF0.06769130150425118
aF0.01733158927403533
aF0.01962066710268151
aF0.02648790058862005
aF0.2073250490516677
aF0.0
aF0.18901242642249838
aF0.0006540222367560355
aF0.18410725964682795
asS'featureList'
p8
(lp9
S'diffHistH_3'
p10
aS'atanHistV0_3'
p11
aS'diffHistR_10'
p12
aS'diffHistR_21'
p13
aS'atanHistV90_10'
p14
aS'diffHistH_2'
p15
aS'atanHistV45_6'
p16
aS'edgeMap_21'
p17
aS'edgeMap_58'
p18
aS'avPercentArea'
p19
aS'atanHistV0_9'
p20
aS'atanHistH90_7'
p21
aS'edgeMap_78'
p22
aS'diffX1'
p23
aS'edgeMap_48'
p24
aS'atanHistH45_7'
p25
aS'atanHistV90_1'
p26
aS'edgeMap_43'
p27
aS'diffHistV_3'
p28
aS'atanHistV90_2'
p29
aS'atanHistH0_7'
p30
aS'edgeMap_20'
p31
aS'atanHistH135_7'
p32
aS'edgeMap_93'
p33
aS'sumHistR_17'
p34
aS'edgeMap_90'
p35
aS'atanHistH0_1'
p36
aS'atanHistH135_1'
p37
aS'sumHistV_9'
p38
aS'sumHistR_19'
p39
aS'edgeMap_91'
p40
aS'diffHistR_3'
p41
aS'sumHistH_6'
p42
aS'edgeMap_5'
p43
aS'diffY1'
p44
aS'sumHistR_3'
p45
aS'bottom'
p46
aS'diffHistR_15'
p47
aS'sumHistV_6'
p48
aS'sumHistV_2'
p49
aS'edgeMap_96'
p50
aS'edgeMap_18'
p51
aS'edgeMap_7'
p52
aS'atanHistH90_3'
p53
aS'edgeMap_79'
p54
aS'diffHistR_4'
p55
aS'edgeMap_19'
p56
aS'edgeMap_15'
p57
aS'sumHistR_6'
p58
aS'sumHistR_15'
p59
aS'sumHistR_9'
p60
aS'edgeMap_49'
p61
aS'edgeMap_85'
p62
aS'edgeMap_46'
p63
aS'edgeMap_29'
p64
aS'edgeMap_11'
p65
aS'atanHistV135_2'
p66
aS'atanHistV0_7'
p67
aS'diffHistR_14'
p68
aS'sumHistR_12'
p69
aS'atan135'
p70
aS'diffHistH_10'
p71
aS'atanHistV45_7'
p72
aS'diffHistV_2'
p73
aS'diffHistH_8'
p74
aS'atanHistV45_10'
p75
aS'atanHistV0_4'
p76
aS'atanHistV45_5'
p77
aS'atanHistV90_3'
p78
aS'atanHistV45_8'
p79
aS'distX'
p80
aS'atanHistH0_6'
p81
aS'diffHistH_1'
p82
aS'edgeMap_99'
p83
aS'edgeMap_61'
p84
aS'diffHistR_1'
p85
aS'sumHistR_14'
p86
aS'edgeMap_66'
p87
aS'sumHistR_11'
p88
aS'atanHistH45_3'
p89
aS'atanHistH135_4'
p90
aS'sumHistR_16'
p91
aS'atanHistV135_1'
p92
aS'atanHistH0_9'
p93
aS'diffBpRatio'
p94
aS'atanHistV135_10'
p95
aS'edgeMap_33'
p96
aS'area'
p97
aS'edgeMap_12'
p98
aS'edgeMap_80'
p99
aS'diffHistR_22'
p100
aS'atanHistH90_4'
p101
aS'edgeMap_76'
p102
aS'edgeMap_89'
p103
aS'diffHistR_12'
p104
aS'sumHistR_7'
p105
aS'edgeMap_50'
p106
aS'edgeMap_92'
p107
aS'diffHistV_6'
p108
aS'atanHistH90_6'
p109
aS'atanHistH90_1'
p110
aS'diffY2'
p111
aS'atanHistH0_10'
p112
aS'atanHistH45_1'
p113
aS'bottomLeft'
p114
aS'diffHistR_19'
p115
aS'atan45'
p116
aS'atanHistV90_8'
p117
aS'edgeMap_17'
p118
aS'diffX2'
p119
aS'sumHistH_9'
p120
aS'atanHistH45_6'
p121
aS'edgeMap_68'
p122
aS'atanHistH0_2'
p123
aS'atanHistH135_9'
p124
aS'diffHistR_16'
p125
aS'topRight'
p126
aS'diffHistR_23'
p127
aS'atan0'
p128
aS'edgeMap_35'
p129
aS'atanHistH45_5'
p130
aS'edgeMap_36'
p131
aS'edgeMap_8'
p132
aS'edgeMap_23'
p133
aS'diffPercentArea'
p134
aS'sumHistV_1'
p135
aS'sumHistH_3'
p136
aS'atanHistV0_8'
p137
aS'edgeMap_70'
p138
aS'edgeMap_75'
p139
aS'atanHistV45_3'
p140
aS'diffHistR_9'
p141
aS'atanHistV0_6'
p142
aS'diffHistV_7'
p143
aS'sumHistH_2'
p144
aS'atanHistH45_9'
p145
aS'sumHistH_10'
p146
aS'sumHistV_8'
p147
aS'diffHistR_20'
p148
aS'sumHistR_8'
p149
aS'atanHistV135_8'
p150
aS'xOverlap'
p151
aS'diffHistH_5'
p152
aS'diffHistH_7'
p153
aS'edgeMap_60'
p154
aS'atanHistH45_10'
p155
aS'edgeMap_54'
p156
aS'diffHistH_4'
p157
aS'diffHistR_18'
p158
aS'edgeMap_1'
p159
aS'atanHistV90_5'
p160
aS'atanHistH135_5'
p161
aS'edgeMap_86'
p162
aS'edgeMap_27'
p163
aS'atanHistV0_10'
p164
aS'sumHistV_10'
p165
aS'edgeMap_71'
p166
aS'atanHistV135_9'
p167
aS'distCorners'
p168
aS'edgeMap_63'
p169
aS'edgeMap_56'
p170
aS'edgeMap_26'
p171
aS'diffHistR_7'
p172
aS'yOverlap'
p173
aS'distY'
p174
aS'atanHistV45_1'
p175
aS'edgeMap_47'
p176
aS'edgeMap_45'
p177
aS'sumHistH_1'
p178
aS'edgeMap_65'
p179
aS'edgeMap_59'
p180
aS'edgeMap_41'
p181
aS'sumHistR_24'
p182
aS'edgeMap_73'
p183
aS'sumHistR_21'
p184
aS'edgeMap_30'
p185
aS'edgeMap_32'
p186
aS'sumHistR_5'
p187
aS'sumHistH_7'
p188
aS'edgeMap_31'
p189
aS'atanHistH135_2'
p190
aS'atanHistH45_4'
p191
aS'edgeMap_38'
p192
aS'sumHistR_13'
p193
aS'edgeMap_87'
p194
aS'edgeMap_16'
p195
aS'edgeMap_10'
p196
aS'atanHistH90_8'
p197
aS'sumHistV_7'
p198
aS'atanHistH45_8'
p199
aS'edgeMap_83'
p200
aS'diffHistR_2'
p201
aS'diffHistV_8'
p202
aS'edgeMap_98'
p203
aS'isInsideRegion'
p204
aS'diffHistV_5'
p205
aS'sumHistR_1'
p206
aS'atanHistV135_4'
p207
aS'edgeMap_72'
p208
aS'atanHistV135_5'
p209
aS'atanHistV135_7'
p210
aS'edgeMap_39'
p211
aS'atanHistH90_5'
p212
aS'sumHistR_2'
p213
aS'diffHistV_9'
p214
aS'atanHistH0_4'
p215
aS'diffHistR_17'
p216
aS'edgeMap_25'
p217
aS'sumHistV_5'
p218
aS'edgeMap_69'
p219
aS'atanHistH135_6'
p220
aS'atanHistH135_3'
p221
aS'edgeMap_9'
p222
aS'edgeMap_52'
p223
aS'sumHistR_10'
p224
aS'top'
p225
aS'edgeMap_57'
p226
aS'atanHistV135_6'
p227
aS'edgeMap_22'
p228
aS'diffHistH_9'
p229
aS'diffHistR_6'
p230
aS'edgeMap_88'
p231
aS'edgeMap_24'
p232
aS'atanHistH135_8'
p233
aS'edgeMap_95'
p234
aS'diffHistR_13'
p235
aS'sumHistR_22'
p236
aS'atanHistV0_1'
p237
aS'atanHistV45_2'
p238
aS'atanHistH90_9'
p239
aS'sumHistR_20'
p240
aS'edgeMap_4'
p241
aS'atanHistV0_2'
p242
aS'diffHistR_24'
p243
aS'atanHistH0_5'
p244
aS'atanHistH0_8'
p245
aS'atanHistV135_3'
p246
aS'distCenters'
p247
aS'edgeMap_100'
p248
aS'atanHistV45_4'
p249
aS'sumHistR_23'
p250
aS'edgeMap_6'
p251
aS'edgeMap_14'
p252
aS'edgeMap_2'
p253
aS'atanHistV0_5'
p254
aS'edgeMap_84'
p255
aS'edgeMap_97'
p256
aS'edgeMap_67'
p257
aS'sumHistH_5'
p258
aS'edgeMap_81'
p259
aS'diffHistV_4'
p260
aS'diffHistH_6'
p261
aS'atanHistH135_10'
p262
aS'atanHistV90_9'
p263
aS'edgeMap_42'
p264
aS'atanHistV90_6'
p265
aS'atanHistV90_4'
p266
aS'edgeMap_82'
p267
aS'edgeMap_94'
p268
aS'edgeMap_62'
p269
aS'bottomRight'
p270
aS'avBpRatio'
p271
aS'atan90'
p272
aS'edgeMap_77'
p273
aS'atanHistV45_9'
p274
aS'edgeMap_53'
p275
aS'sumHistR_4'
p276
aS'atanHistH0_3'
p277
aS'edgeMap_55'
p278
aS'diffHistR_5'
p279
aS'sumHistV_4'
p280
aS'edgeMap_44'
p281
aS'sumHistV_3'
p282
aS'diffHistV_10'
p283
aS'edgeMap_34'
p284
aS'diffHistR_8'
p285
aS'atanHistH90_2'
p286
aS'atanHistV90_7'
p287
aS'edgeMap_13'
p288
aS'edgeMap_37'
p289
aS'diffHistV_1'
p290
aS'topLeft'
p291
aS'edgeMap_3'
p292
aS'edgeMap_74'
p293
aS'edgeMap_51'
p294
aS'right'
p295
aS'edgeMap_40'
p296
aS'edgeMap_28'
p297
aS'diffArea'
p298
aS'left'
p299
aS'edgeMap_64'
p300
aS'atanHistH45_2'
p301
aS'sumHistH_4'
p302
aS'sumHistH_8'
p303
aS'atanHistH90_10'
p304
aS'sumHistR_18'
p305
aS'diffHistR_11'
p306
asS'classifiers'
p307
(lp308
g0
(cDecisionStump
DecisionStump
p309
g2
Ntp310
Rp311
(dp312
S'featureName'
p313
g217
sS'thresh'
p314
F0.0
sS'errorRate'
p315
I490
sS'weights'
p316
(lp317
sS'ineq'
p318
S'lt'
p319
sS'votingWeight'
p320
I1
sbag0
(g309
g2
Ntp321
Rp322
(dp323
g313
g20
sg314
F0.0
sg315
I588
sg316
(lp324
sg318
g319
sg320
I1
sbag0
(g309
g2
Ntp325
Rp326
(dp327
g313
g268
sg314
F0.0
sg315
I686
sg316
(lp328
sg318
g319
sg320
I1
sbag0
(g309
g2
Ntp329
Rp330
(dp331
g313
g16
sg314
F0.0
sg315
I784
sg316
(lp332
sg318
g319
sg320
I1
sbag0
(g309
g2
Ntp333
Rp334
(dp335
g313
g257
sg314
F0.0
sg315
I882
sg316
(lp336
sg318
g319
sg320
I1
sbag0
(g309
g2
Ntp337
Rp338
(dp339
g313
g222
sg314
F5.333333333333333
sg315
I931
sg316
(lp340
sg318
S'gt'
p341
sg320
I1
sbag0
(g309
g2
Ntp342
Rp343
(dp344
g313
g135
sg314
F0.0
sg315
I1010
sg316
(lp345
sg318
g319
sg320
I1
sbag0
(g309
g2
Ntp346
Rp347
(dp348
g313
g201
sg314
F0.0
sg315
I1108
sg316
(lp349
sg318
g319
sg320
I1
sbag0
(g309
g2
Ntp350
Rp351
(dp352
g313
g159
sg314
F9.333333333333332
sg315
I1178
sg316
(lp353
sg318
g341
sg320
I1
sbag0
(g309
g2
Ntp354
Rp355
(dp356
g313
g176
sg314
F0.6666666666666666
sg315
I1250
sg316
(lp357
sg318
g319
sg320
I1
sbag0
(g309
g2
Ntp358
Rp359
(dp360
g313
g70
sg314
F131.2
sg315
I1301
sg316
(lp361
sg318
g341
sg320
I1
sbag0
(g309
g2
Ntp362
Rp363
(dp364
g313
g267
sg314
F2.6666666666666665
sg315
I1295
sg316
(lp365
sg318
g341
sg320
I1
sbag0
(g309
g2
Ntp366
Rp367
(dp368
g313
g229
sg314
F0.0
sg315
I1360
sg316
(lp369
sg318
g319
sg320
I1
sbag0
(g309
g2
Ntp370
Rp371
(dp372
g313
g158
sg314
F0.13333333333333333
sg315
I1153
sg316
(lp373
sg318
g341
sg320
I1
sbag0
(g309
g2
Ntp374
Rp375
(dp376
g313
g265
sg314
F4.666666666666666
sg315
I1424
sg316
(lp377
sg318
g319
sg320
I1
sbag0
(g309
g2
Ntp378
Rp379
(dp380
g313
g213
sg314
F0.0
sg315
I1464
sg316
(lp381
sg318
g319
sg320
I1
sbag0
(g309
g2
Ntp382
Rp383
(dp384
g313
g98
sg314
F3.333333333333333
sg315
I1195
sg316
(lp385
sg318
g341
sg320
I1
sbag0
(g309
g2
Ntp386
Rp387
(dp388
g313
g104
sg314
F0.06666666666666667
sg315
I1298
sg316
(lp389
sg318
g341
sg320
I1
sbag0
(g309
g2
Ntp390
Rp391
(dp392
g313
g297
sg314
F2.6666666666666665
sg315
I1536
sg316
(lp393
sg318
g319
sg320
I1
sbag0
(g309
g2
Ntp394
Rp395
(dp396
g313
g232
sg314
F0.0
sg315
I1570
sg316
(lp397
sg318
g319
sg320
I1
sbag0
(g309
g2
Ntp398
Rp399
(dp400
g313
g144
sg314
F0.0
sg315
I1668
sg316
(lp401
sg318
g319
sg320
I1
sbag0
(g309
g2
Ntp402
Rp403
(dp404
g313
g36
sg314
F0.6666666666666666
sg315
I1676
sg316
(lp405
sg318
g319
sg320
I1
sbag0
(g309
g2
Ntp406
Rp407
(dp408
g313
g171
sg314
F2.6666666666666665
sg315
I1808
sg316
(lp409
sg318
g319
sg320
I1
sbag0
(g309
g2
Ntp410
Rp411
(dp412
g313
g74
sg314
F0.0
sg315
I1822
sg316
(lp413
sg318
g319
sg320
I1
sbag0
(g309
g2
Ntp414
Rp415
(dp416
g313
g212
sg314
F2.6666666666666665
sg315
I1487
sg316
(lp417
sg318
g319
sg320
I1
sbag0
(g309
g2
Ntp418
Rp419
(dp420
g313
g205
sg314
F0.0
sg315
I1880
sg316
(lp421
sg318
g319
sg320
I1
sbag0
(g309
g2
Ntp422
Rp423
(dp424
g313
g233
sg314
F5.333333333333333
sg315
I1534
sg316
(lp425
sg318
g341
sg320
I1
sbag0
(g309
g2
Ntp426
Rp427
(dp428
g313
g37
sg314
F0.0
sg315
I1940
sg316
(lp429
sg318
g319
sg320
I1
sbag0
(g309
g2
Ntp430
Rp431
(dp432
g313
g193
sg314
F0.6666666666666666
sg315
I1746
sg316
(lp433
sg318
g341
sg320
I1
sbag0
(g309
g2
Ntp434
Rp435
(dp436
g313
g113
sg314
F3.333333333333333
sg315
I1292
sg316
(lp437
sg318
g319
sg320
I1
sbag0
(g309
g2
Ntp438
Rp439
(dp440
g313
g240
sg314
F0.6666666666666666
sg315
I1714
sg316
(lp441
sg318
g341
sg320
I1
sbag0
(g309
g2
Ntp442
Rp443
(dp444
g313
g192
sg314
F6.666666666666666
sg315
I1880
sg316
(lp445
sg318
g319
sg320
I1
sbag0
(g309
g2
Ntp446
Rp447
(dp448
g313
g235
sg314
F0.06666666666666667
sg315
I1768
sg316
(lp449
sg318
g341
sg320
I1
sbag0
(g309
g2
Ntp450
Rp451
(dp452
g313
g254
sg314
F4.666666666666666
sg315
I1547
sg316
(lp453
sg318
g341
sg320
I1
sbag0
(g309
g2
Ntp454
Rp455
(dp456
g313
g116
sg314
F32.33333333333333
sg315
I1779
sg316
(lp457
sg318
g319
sg320
I1
sbag0
(g309
g2
Ntp458
Rp459
(dp460
g313
g296
sg314
F0.0
sg315
I2006
sg316
(lp461
sg318
g319
sg320
I1
sbag0
(g309
g2
Ntp462
Rp463
(dp464
g313
g130
sg314
F4.666666666666666
sg315
I1691
sg316
(lp465
sg318
g341
sg320
I1
sbag0
(g309
g2
Ntp466
Rp467
(dp468
g313
g284
sg314
F0.0
sg315
I2046
sg316
(lp469
sg318
g319
sg320
I1
sbag0
(g309
g2
Ntp470
Rp471
(dp472
g313
g41
sg314
F0.0
sg315
I2003
sg316
(lp473
sg318
g341
sg320
I1
sbag0
(g309
g2
Ntp474
Rp475
(dp476
g313
g173
sg314
F0.0
sg315
I2046
sg316
(lp477
sg318
g319
sg320
I1
sbag0
(g309
g2
Ntp478
Rp479
(dp480
g313
g169
sg314
F7.333333333333333
sg315
I1940
sg316
(lp481
sg318
g319
sg320
I1
sbag0
(g309
g2
Ntp482
Rp483
(dp484
g313
g108
sg314
F0.0
sg315
I2048
sg316
(lp485
sg318
g319
sg320
I1
sbag0
(g309
g2
Ntp486
Rp487
(dp488
g313
g21
sg314
F5.333333333333333
sg315
I1515
sg316
(lp489
sg318
g319
sg320
I1
sbag0
(g309
g2
Ntp490
Rp491
(dp492
g313
g15
sg314
F0.0
sg315
I2050
sg316
(lp493
sg318
g319
sg320
I1
sbag0
(g309
g2
Ntp494
Rp495
(dp496
g313
g306
sg314
F0.06666666666666667
sg315
I1926
sg316
(lp497
sg318
g341
sg320
I1
sbag0
(g309
g2
Ntp498
Rp499
(dp500
g313
g94
sg314
F0.0
sg315
I1811
sg316
(lp501
sg318
g341
sg320
I1
sbag0
(g309
g2
Ntp502
Rp503
(dp504
g313
g19
sg314
F0.001011812221170745
sg315
I2116
sg316
(lp505
sg318
g319
sg320
I1
sbag0
(g309
g2
Ntp506
Rp507
(dp508
g313
g101
sg314
F4.666666666666666
sg315
I1481
sg316
(lp509
sg318
g319
sg320
I1
sbag0
(g309
g2
Ntp510
Rp511
(dp512
g313
g18
sg314
F0.0
sg315
I2140
sg316
(lp513
sg318
g319
sg320
I1
sbag0
(g309
g2
Ntp514
Rp515
(dp516
g313
g287
sg314
F0.6666666666666666
sg315
I1792
sg316
(lp517
sg318
g341
sg320
I1
sbag0
(g309
g2
Ntp518
Rp519
(dp520
g313
g110
sg314
F9.333333333333332
sg315
I2071
sg316
(lp521
sg318
g341
sg320
I1
sbag0
(g309
g2
Ntp522
Rp523
(dp524
g313
g54
sg314
F2.6666666666666665
sg315
I2162
sg316
(lp525
sg318
g341
sg320
I1
sbag0
(g309
g2
Ntp526
Rp527
(dp528
g313
g39
sg314
F0.6666666666666666
sg315
I1958
sg316
(lp529
sg318
g341
sg320
I1
sbag0
(g309
g2
Ntp530
Rp531
(dp532
g313
g280
sg314
F0.6666666666666666
sg315
I2073
sg316
(lp533
sg318
g341
sg320
I1
sbag0
(g309
g2
Ntp534
Rp535
(dp536
g313
g180
sg314
F0.0
sg315
I2144
sg316
(lp537
sg318
g319
sg320
I1
sbag0
(g309
g2
Ntp538
Rp539
(dp540
g313
g162
sg314
F2.6666666666666665
sg315
I1578
sg316
(lp541
sg318
g341
sg320
I1
sbag0
(g309
g2
Ntp542
Rp543
(dp544
g313
g87
sg314
F0.0
sg315
I2188
sg316
(lp545
sg318
g319
sg320
I1
sbag0
(g309
g2
Ntp546
Rp547
(dp548
g313
g243
sg314
F1.0666666666666667
sg315
I1958
sg316
(lp549
sg318
g319
sg320
I1
sbag0
(g309
g2
Ntp550
Rp551
(dp552
g313
g106
sg314
F0.0
sg315
I2192
sg316
(lp553
sg318
g319
sg320
I1
sbag0
(g309
g2
Ntp554
Rp555
(dp556
g313
g50
sg314
F8.666666666666666
sg315
I1967
sg316
(lp557
sg318
g319
sg320
I1
sbag0
(g309
g2
Ntp558
Rp559
(dp560
g313
g230
sg314
F0.0
sg315
I2196
sg316
(lp561
sg318
g319
sg320
I1
sbag0
(g309
g2
Ntp562
Rp563
(dp564
g313
g214
sg314
F1.0666666666666667
sg315
I1953
sg316
(lp565
sg318
g319
sg320
I1
sbag0
(g309
g2
Ntp566
Rp567
(dp568
g313
g266
sg314
F3.333333333333333
sg315
I2198
sg316
(lp569
sg318
g319
sg320
I1
sbag0
(g309
g2
Ntp570
Rp571
(dp572
g313
g286
sg314
F3.333333333333333
sg315
I1930
sg316
(lp573
sg318
g341
sg320
I1
sbag0
(g309
g2
Ntp574
Rp575
(dp576
g313
g25
sg314
F0.0
sg315
I2210
sg316
(lp577
sg318
g319
sg320
I1
sbag0
(g309
g2
Ntp578
Rp579
(dp580
g313
g143
sg314
F0.13333333333333333
sg315
I2206
sg316
(lp581
sg318
g341
sg320
I1
sbag0
(g309
g2
Ntp582
Rp583
(dp584
g313
g236
sg314
F0.6666666666666666
sg315
I2078
sg316
(lp585
sg318
g341
sg320
I1
sbag0
(g309
g2
Ntp586
Rp587
(dp588
g313
g174
sg314
F51.4
sg315
I1328
sg316
(lp589
sg318
g319
sg320
I1
sbag0
(g309
g2
Ntp590
Rp591
(dp592
g313
g239
sg314
F0.0
sg315
I2190
sg316
(lp593
sg318
g319
sg320
I1
sbag0
(g309
g2
Ntp594
Rp595
(dp596
g313
g305
sg314
F0.6666666666666666
sg315
I2134
sg316
(lp597
sg318
g341
sg320
I1
sbag0
(g309
g2
Ntp598
Rp599
(dp600
g313
g275
sg314
F4.666666666666666
sg315
I2042
sg316
(lp601
sg318
g319
sg320
I1
sbag0
(g309
g2
Ntp602
Rp603
(dp604
g313
g157
sg314
F0.0
sg315
I2263
sg316
(lp605
sg318
g319
sg320
I1
sbag0
(g309
g2
Ntp606
Rp607
(dp608
g313
g137
sg314
F3.333333333333333
sg315
I1913
sg316
(lp609
sg318
g341
sg320
I1
sbag0
(g309
g2
Ntp610
Rp611
(dp612
g313
g29
sg314
F9.333333333333332
sg315
I1938
sg316
(lp613
sg318
g341
sg320
I1
sbag0
(g309
g2
Ntp614
Rp615
(dp616
g313
g179
sg314
F1.3333333333333333
sg315
I2027
sg316
(lp617
sg318
g341
sg320
I1
sbag0
(g309
g2
Ntp618
Rp619
(dp620
g313
g187
sg314
F0.0
sg315
I2335
sg316
(lp621
sg318
g319
sg320
I1
sbag0
(g309
g2
Ntp622
Rp623
(dp624
g313
g219
sg314
F1.3333333333333333
sg315
I1921
sg316
(lp625
sg318
g341
sg320
I1
sbag0
(g309
g2
Ntp626
Rp627
(dp628
g313
g172
sg314
F0.0
sg315
I2387
sg316
(lp629
sg318
g319
sg320
I1
sbag0
(g309
g2
Ntp630
Rp631
(dp632
g313
g303
sg314
F0.6666666666666666
sg315
I1922
sg316
(lp633
sg318
g341
sg320
I1
sbag0
(g309
g2
Ntp634
Rp635
(dp636
g313
g114
sg314
F0.0
sg315
I2387
sg316
(lp637
sg318
g319
sg320
I1
sbag0
(g309
g2
Ntp638
Rp639
(dp640
g313
g12
sg314
F0.0
sg315
I2000
sg316
(lp641
sg318
g341
sg320
I1
sbag0
(g309
g2
Ntp642
Rp643
(dp644
g313
g183
sg314
F0.0
sg315
I2387
sg316
(lp645
sg318
g319
sg320
I1
sbag0
(g309
g2
Ntp646
Rp647
(dp648
g313
g256
sg314
F0.0
sg315
I2000
sg316
(lp649
sg318
g341
sg320
I1
sbag0
(g309
g2
Ntp650
Rp651
(dp652
g313
g152
sg314
F0.0
sg315
I2387
sg316
(lp653
sg318
g319
sg320
I1
sbag0
(g309
g2
Ntp654
Rp655
(dp656
g313
g81
sg314
F0.6666666666666666
sg315
I1893
sg316
(lp657
sg318
g341
sg320
I1
sbag0
(g309
g2
Ntp658
Rp659
(dp660
g313
g80
sg314
F148.2
sg315
I2274
sg316
(lp661
sg318
g341
sg320
I1
sbag0
(g309
g2
Ntp662
Rp663
(dp664
g313
g295
sg314
F0.13333333333333333
sg315
I1448
sg316
(lp665
sg318
g341
sg320
I1
sbag0
(g309
g2
Ntp666
Rp667
(dp668
g313
g161
sg314
F5.333333333333333
sg315
I2289
sg316
(lp669
sg318
g341
sg320
I1
sbag0
(g309
g2
Ntp670
Rp671
(dp672
g313
g237
sg314
F0.0
sg315
I2363
sg316
(lp673
sg318
g319
sg320
I1
sbag0
(g309
g2
Ntp674
Rp675
(dp676
g313
g274
sg314
F4.666666666666666
sg315
I2065
sg316
(lp677
sg318
g319
sg320
I1
sbag0
(g309
g2
Ntp678
Rp679
(dp680
g313
g273
sg314
F8.666666666666666
sg315
I2392
sg316
(lp681
sg318
g341
sg320
I1
sbag0
(g309
g2
Ntp682
Rp683
(dp684
g313
g93
sg314
F2.6666666666666665
sg315
I1508
sg316
(lp685
sg318
g341
sg320
I1
sbag0
(g309
g2
Ntp686
Rp687
(dp688
g313
g109
sg314
F2.6666666666666665
sg315
I2379
sg316
(lp689
sg318
g319
sg320
I1
sbag0
(g309
g2
Ntp690
Rp691
(dp692
g313
g151
sg314
F0.13333333333333333
sg315
I1946
sg316
(lp693
sg318
g319
sg320
I1
sbag0
(g309
g2
Ntp694
Rp695
(dp696
g313
g24
sg314
F0.0
sg315
I2315
sg316
(lp697
sg318
g319
sg320
I1
sbag0
(g309
g2
Ntp698
Rp699
(dp700
g313
g127
sg314
F0.13333333333333333
sg315
I2263
sg316
(lp701
sg318
g341
sg320
I1
sbag0
(g309
g2
Ntp702
Rp703
(dp704
g313
g14
sg314
F8.666666666666666
sg315
I2225
sg316
(lp705
sg318
g319
sg320
I1
sbag0
(g309
g2
Ntp706
Rp707
(dp708
g313
g302
sg314
F0.0
sg315
I2376
sg316
(lp709
sg318
g319
sg320
I1
sbag0
(g309
g2
Ntp710
Rp711
(dp712
g313
g86
sg314
F0.0
sg315
I2284
sg316
(lp713
sg318
g341
sg320
I1
sbag0
(g309
g2
Ntp714
Rp715
(dp716
g313
g103
sg314
F9.333333333333332
sg315
I2369
sg316
(lp717
sg318
g341
sg320
I1
sbag0
(g309
g2
Ntp718
Rp719
(dp720
g313
g30
sg314
F4.666666666666666
sg315
I2238
sg316
(lp721
sg318
g319
sg320
I1
sbag0
(g309
g2
Ntp722
Rp723
(dp724
g313
g221
sg314
F5.333333333333333
sg315
I2174
sg316
(lp725
sg318
g319
sg320
I1
sbag0
(g309
g2
Ntp726
Rp727
(dp728
g313
g65
sg314
F5.333333333333333
sg315
I2249
sg316
(lp729
sg318
g341
sg320
I1
sbag0
(g309
g2
Ntp730
Rp731
(dp732
g313
g228
sg314
F0.0
sg315
I2449
sg316
(lp733
sg318
g319
sg320
I1
sbag0
(g309
g2
Ntp734
Rp735
(dp736
g313
g204
sg314
F0.0
sg315
I2183
sg316
(lp737
sg318
g341
sg320
I1
sbag0
(g309
g2
Ntp738
Rp739
(dp740
g313
g209
sg314
F0.0
sg315
I2449
sg316
(lp741
sg318
g319
sg320
I1
sbag0
(g309
g2
Ntp742
Rp743
(dp744
g313
g85
sg314
F0.0
sg315
I2183
sg316
(lp745
sg318
g341
sg320
I1
sbag0
(g309
g2
Ntp746
Rp747
(dp748
g313
g238
sg314
F0.0
sg315
I2449
sg316
(lp749
sg318
g319
sg320
I1
sbag0
(g309
g2
Ntp750
Rp751
(dp752
g313
g196
sg314
F2.6666666666666665
sg315
I1905
sg316
(lp753
sg318
g341
sg320
I1
sbag0
(g309
g2
Ntp754
Rp755
(dp756
g313
g52
sg314
F6.666666666666666
sg315
I2351
sg316
(lp757
sg318
g341
sg320
I1
sbag0
(g309
g2
Ntp758
Rp759
(dp760
g313
g200
sg314
F6.666666666666666
sg315
I2267
sg316
(lp761
sg318
g319
sg320
I1
sbag0
(g309
g2
Ntp762
Rp763
(dp764
g313
g282
sg314
F0.0
sg315
I2477
sg316
(lp765
sg318
g319
sg320
I1
sbag0
(g309
g2
Ntp766
Rp767
(dp768
g313
g208
sg314
F0.6666666666666666
sg315
I2225
sg316
(lp769
sg318
g341
sg320
I1
sbag0
(g309
g2
Ntp770
Rp771
(dp772
g313
g129
sg314
F7.333333333333333
sg315
I2435
sg316
(lp773
sg318
g341
sg320
I1
sbag0
(g309
g2
Ntp774
Rp775
(dp776
g313
g47
sg314
F1.0666666666666667
sg315
I2265
sg316
(lp777
sg318
g319
sg320
I1
sbag0
(g309
g2
Ntp778
Rp779
(dp780
g313
g264
sg314
F0.0
sg315
I2521
sg316
(lp781
sg318
g319
sg320
I1
sbag0
(g309
g2
Ntp782
Rp783
(dp784
g313
g223
sg314
F6.666666666666666
sg315
I2189
sg316
(lp785
sg318
g319
sg320
I1
sbag0
(g309
g2
Ntp786
Rp787
(dp788
g313
g253
sg314
F0.0
sg315
I2527
sg316
(lp789
sg318
g319
sg320
I1
sbag0
(g309
g2
Ntp790
Rp791
(dp792
g313
g293
sg314
F1.3333333333333333
sg315
I2093
sg316
(lp793
sg318
g341
sg320
I1
sbag0
(g309
g2
Ntp794
Rp795
(dp796
g313
g43
sg314
F0.6666666666666666
sg315
I2028
sg316
(lp797
sg318
g319
sg320
I1
sbag0
(g309
g2
Ntp798
Rp799
(dp800
g313
g13
sg314
F0.13333333333333333
sg315
I2337
sg316
(lp801
sg318
g341
sg320
I1
sbag0
(g309
g2
Ntp802
Rp803
(dp804
g313
g255
sg314
F2.6666666666666665
sg315
I2094
sg316
(lp805
sg318
g341
sg320
I1
sbag0
(g309
g2
Ntp806
Rp807
(dp808
g313
g154
sg314
F1.3333333333333333
sg315
I2500
sg316
(lp809
sg318
g319
sg320
I1
sbag0
(g309
g2
Ntp810
Rp811
(dp812
g313
g44
sg314
F50.666666666666664
sg315
I1676
sg316
(lp813
sg318
g319
sg320
I1
sbag0
(g309
g2
Ntp814
Rp815
(dp816
g313
g249
sg314
F9.333333333333332
sg315
I2409
sg316
(lp817
sg318
g341
sg320
I1
sbag0
(g309
g2
Ntp818
Rp819
(dp820
g313
g121
sg314
F5.333333333333333
sg315
I2045
sg316
(lp821
sg318
g341
sg320
I1
sbag0
(g309
g2
Ntp822
Rp823
(dp824
g313
g40
sg314
F3.333333333333333
sg315
I2207
sg316
(lp825
sg318
g341
sg320
I1
sbag0
(g309
g2
Ntp826
Rp827
(dp828
g313
g175
sg314
F8.666666666666666
sg315
I2292
sg316
(lp829
sg318
g341
sg320
I1
sbag0
(g309
g2
Ntp830
Rp831
(dp832
g313
g216
sg314
F0.13333333333333333
sg315
I2365
sg316
(lp833
sg318
g341
sg320
I1
sbag0
(g309
g2
Ntp834
Rp835
(dp836
g313
g298
sg314
F0.0
sg315
I2361
sg316
(lp837
sg318
g341
sg320
I1
sbag0
(g309
g2
Ntp838
Rp839
(dp840
g313
g17
sg314
F0.0
sg315
I2493
sg316
(lp841
sg318
g319
sg320
I1
sbag0
(g309
g2
Ntp842
Rp843
(dp844
g313
g207
sg314
F4.666666666666666
sg315
I2244
sg316
(lp845
sg318
g319
sg320
I1
sbag0
(g309
g2
Ntp846
Rp847
(dp848
g313
g141
sg314
F0.06666666666666667
sg315
I2392
sg316
(lp849
sg318
g341
sg320
I1
sbag0
(g309
g2
Ntp850
Rp851
(dp852
g313
g189
sg314
F1.3333333333333333
sg315
I1968
sg316
(lp853
sg318
g341
sg320
I1
sbag0
(g309
g2
Ntp854
Rp855
(dp856
g313
g66
sg314
F1.3333333333333333
sg315
I2421
sg316
(lp857
sg318
g319
sg320
I1
sbag0
(g309
g2
Ntp858
Rp859
(dp860
g313
g23
sg314
F41.86666666666667
sg315
I1920
sg316
(lp861
sg318
g341
sg320
I1
sbag0
(g309
g2
Ntp862
Rp863
(dp864
g313
g263
sg314
F0.6666666666666666
sg315
I2307
sg316
(lp865
sg318
g319
sg320
I1
sbag0
(g309
g2
Ntp866
Rp867
(dp868
g313
g160
sg314
F3.333333333333333
sg315
I2235
sg316
(lp869
sg318
g319
sg320
I1
sbag0
(g309
g2
Ntp870
Rp871
(dp872
g313
g22
sg314
F7.333333333333333
sg315
I2490
sg316
(lp873
sg318
g341
sg320
I1
sbag0
(g309
g2
Ntp874
Rp875
(dp876
g313
g77
sg314
F2.6666666666666665
sg315
I2185
sg316
(lp877
sg318
g319
sg320
I1
sbag0
(g309
g2
Ntp878
Rp879
(dp880
g313
g289
sg314
F1.3333333333333333
sg315
I2521
sg316
(lp881
sg318
g319
sg320
I1
sbag0
(g309
g2
Ntp882
Rp883
(dp884
g313
g155
sg314
F0.0
sg315
I2668
sg316
(lp885
sg318
g319
sg320
I1
sbag0
(g309
g2
Ntp886
Rp887
(dp888
g313
g242
sg314
F7.333333333333333
sg315
I2019
sg316
(lp889
sg318
g319
sg320
I1
sbag0
(g309
g2
Ntp890
Rp891
(dp892
g313
g299
sg314
F0.13333333333333333
sg315
I2207
sg316
(lp893
sg318
g341
sg320
I1
sbag0
(g309
g2
Ntp894
Rp895
(dp896
g313
g149
sg314
F0.6666666666666666
sg315
I2437
sg316
(lp897
sg318
g341
sg320
I1
sbag0
(g309
g2
Ntp898
Rp899
(dp900
g313
g185
sg314
F6.666666666666666
sg315
I2639
sg316
(lp901
sg318
g319
sg320
I1
sbag0
(g309
g2
Ntp902
Rp903
(dp904
g313
g125
sg314
F0.13333333333333333
sg315
I2546
sg316
(lp905
sg318
g341
sg320
I1
sbag0
(g309
g2
Ntp906
Rp907
(dp908
g313
g53
sg314
F4.666666666666666
sg315
I2386
sg316
(lp909
sg318
g319
sg320
I1
sbag0
(g309
g2
Ntp910
Rp911
(dp912
g313
g270
sg314
F0.0
sg315
I2577
sg316
(lp913
sg318
g319
sg320
I1
sbag0
(g309
g2
Ntp914
Rp915
(dp916
g313
g244
sg314
F1.3333333333333333
sg315
I2400
sg316
(lp917
sg318
g341
sg320
I1
sbag0
(g309
g2
Ntp918
Rp919
(dp920
g313
g211
sg314
F9.333333333333332
sg315
I2585
sg316
(lp921
sg318
g341
sg320
I1
sbag0
(g309
g2
Ntp922
Rp923
(dp924
g313
g63
sg314
F5.333333333333333
sg315
I2276
sg316
(lp925
sg318
g319
sg320
I1
sbag0
(g309
g2
Ntp926
Rp927
(dp928
g313
g168
sg314
F53.333333333333336
sg315
I2120
sg316
(lp929
sg318
g319
sg320
I1
sbag0
(g309
g2
Ntp930
Rp931
(dp932
g313
g76
sg314
F6.666666666666666
sg315
I2546
sg316
(lp933
sg318
g341
sg320
I1
sbag0
(g309
g2
Ntp934
Rp935
(dp936
g313
g258
sg314
F0.0
sg315
I2592
sg316
(lp937
sg318
g319
sg320
I1
sbag0
(g309
g2
Ntp938
Rp939
(dp940
g313
g115
sg314
F1.0666666666666667
sg315
I2363
sg316
(lp941
sg318
g319
sg320
I1
sbag0
(g309
g2
Ntp942
Rp943
(dp944
g313
g271
sg314
F0.0
sg315
I2608
sg316
(lp945
sg318
g319
sg320
I1
sbag0
(g309
g2
Ntp946
Rp947
(dp948
g313
g112
sg314
F5.333333333333333
sg315
I2210
sg316
(lp949
sg318
g319
sg320
I1
sbag0
(g309
g2
Ntp950
Rp951
(dp952
g313
g259
sg314
F9.333333333333332
sg315
I2559
sg316
(lp953
sg318
g341
sg320
I1
sbag0
(g309
g2
Ntp954
Rp955
(dp956
g313
g197
sg314
F5.333333333333333
sg315
I2141
sg316
(lp957
sg318
g319
sg320
I1
sbag0
(g309
g2
Ntp958
Rp959
(dp960
g313
g118
sg314
F6.666666666666666
sg315
I2568
sg316
(lp961
sg318
g341
sg320
I1
sbag0
(g309
g2
Ntp962
Rp963
(dp964
g313
g82
sg314
F0.13333333333333333
sg315
I2309
sg316
(lp965
sg318
g341
sg320
I1
sbag0
(g309
g2
Ntp966
Rp967
(dp968
g313
g32
sg314
F0.0
sg315
I2616
sg316
(lp969
sg318
g319
sg320
I1
sbag0
(g309
g2
Ntp970
Rp971
(dp972
g313
g195
sg314
F3.333333333333333
sg315
I2128
sg316
(lp973
sg318
g341
sg320
I1
sbag0
(g309
g2
Ntp974
Rp975
(dp976
g313
g167
sg314
F3.333333333333333
sg315
I1956
sg316
(lp977
sg318
g319
sg320
I1
sbag0
(g309
g2
Ntp978
Rp979
(dp980
g313
g292
sg314
F0.6666666666666666
sg315
I2316
sg316
(lp981
sg318
g319
sg320
I1
sbag0
(g309
g2
Ntp982
Rp983
(dp984
g313
g198
sg314
F0.0
sg315
I2660
sg316
(lp985
sg318
g319
sg320
I1
sbag0
(g309
g2
Ntp986
Rp987
(dp988
g313
g261
sg314
F1.0666666666666667
sg315
I2317
sg316
(lp989
sg318
g341
sg320
I1
sbag0
(g309
g2
Ntp990
Rp991
(dp992
g313
g210
sg314
F0.0
sg315
I2698
sg316
(lp993
sg318
g319
sg320
I1
sbag0
(g309
g2
Ntp994
Rp995
(dp996
g313
g288
sg314
F2.6666666666666665
sg315
I2125
sg316
(lp997
sg318
g341
sg320
I1
sbag0
(g309
g2
Ntp998
Rp999
(dp1000
g313
g300
sg314
F9.333333333333332
sg315
I2747
sg316
(lp1001
sg318
g341
sg320
I1
sbag0
(g309
g2
Ntp1002
Rp1003
(dp1004
g313
g27
sg314
F4.666666666666666
sg315
I2065
sg316
(lp1005
sg318
g319
sg320
I1
sbag0
(g309
g2
Ntp1006
Rp1007
(dp1008
g313
g186
sg314
F0.0
sg315
I2774
sg316
(lp1009
sg318
g319
sg320
I1
sbag0
(g309
g2
Ntp1010
Rp1011
(dp1012
g313
g72
sg314
F1.3333333333333333
sg315
I1840
sg316
(lp1013
sg318
g341
sg320
I1
sbag0
(g309
g2
Ntp1014
Rp1015
(dp1016
g313
g241
sg314
F0.0
sg315
I2790
sg316
(lp1017
sg318
g319
sg320
I1
sbag0
(g309
g2
Ntp1018
Rp1019
(dp1020
g313
g276
sg314
F0.0
sg315
I2027
sg316
(lp1021
sg318
g341
sg320
I1
sbag0
(g309
g2
Ntp1022
Rp1023
(dp1024
g313
g64
sg314
F7.333333333333333
sg315
I2778
sg316
(lp1025
sg318
g341
sg320
I1
sbag0
(g309
g2
Ntp1026
Rp1027
(dp1028
g313
g227
sg314
F9.333333333333332
sg315
I1943
sg316
(lp1029
sg318
g319
sg320
I1
sbag0
(g309
g2
Ntp1030
Rp1031
(dp1032
g313
g119
sg314
F51.599999999999994
sg315
I2608
sg316
(lp1033
sg318
g341
sg320
I1
sbag0
(g309
g2
Ntp1034
Rp1035
(dp1036
g313
g71
sg314
F1.0666666666666667
sg315
I2749
sg316
(lp1037
sg318
g319
sg320
I1
sbag0
(g309
g2
Ntp1038
Rp1039
(dp1040
g313
g59
sg314
F0.6666666666666666
sg315
I2588
sg316
(lp1041
sg318
g341
sg320
I1
sbag0
(g309
g2
Ntp1042
Rp1043
(dp1044
g313
g75
sg314
F6.666666666666666
sg315
I2033
sg316
(lp1045
sg318
g319
sg320
I1
sbag0
(g309
g2
Ntp1046
Rp1047
(dp1048
g313
g215
sg314
F3.333333333333333
sg315
I2745
sg316
(lp1049
sg318
g319
sg320
I1
sbag0
(g309
g2
Ntp1050
Rp1051
(dp1052
g313
g147
sg314
F0.0
sg315
I2761
sg316
(lp1053
sg318
g319
sg320
I1
sbag0
(g309
g2
Ntp1054
Rp1055
(dp1056
g313
g163
sg314
F0.6666666666666666
sg315
I2521
sg316
(lp1057
sg318
g341
sg320
I1
sbag0
(g309
g2
Ntp1058
Rp1059
(dp1060
g313
g26
sg314
F0.0
sg315
I2811
sg316
(lp1061
sg318
g319
sg320
I1
sbag0
(g309
g2
Ntp1062
Rp1063
(dp1064
g313
g177
sg314
F3.333333333333333
sg315
I2286
sg316
(lp1065
sg318
g319
sg320
I1
sbag0
(g309
g2
Ntp1066
Rp1067
(dp1068
g313
g226
sg314
F0.0
sg315
I2857
sg316
(lp1069
sg318
g319
sg320
I1
sbag0
(g309
g2
Ntp1070
Rp1071
(dp1072
g313
g250
sg314
F0.0
sg315
I2219
sg316
(lp1073
sg318
g341
sg320
I1
sbag0
(g309
g2
Ntp1074
Rp1075
(dp1076
g313
g136
sg314
F0.0
sg315
I2857
sg316
(lp1077
sg318
g319
sg320
I1
sbag0
(g309
g2
Ntp1078
Rp1079
(dp1080
g313
g272
sg314
F35.4
sg315
I1615
sg316
(lp1081
sg318
g319
sg320
I1
sbag0
(g309
g2
Ntp1082
Rp1083
(dp1084
g313
g57
sg314
F2.6666666666666665
sg315
I2310
sg316
(lp1085
sg318
g341
sg320
I1
sbag0
(g309
g2
Ntp1086
Rp1087
(dp1088
g313
g45
sg314
F0.0
sg315
I2864
sg316
(lp1089
sg318
g319
sg320
I1
sbag0
(g309
g2
Ntp1090
Rp1091
(dp1092
g313
g150
sg314
F0.0
sg315
I2241
sg316
(lp1093
sg318
g341
sg320
I1
sbag0
(g309
g2
Ntp1094
Rp1095
(dp1096
g313
g260
sg314
F0.0
sg315
I2864
sg316
(lp1097
sg318
g319
sg320
I1
sbag0
(g309
g2
Ntp1098
Rp1099
(dp1100
g313
g49
sg314
F0.6666666666666666
sg315
I2132
sg316
(lp1101
sg318
g341
sg320
I1
sbag0
(g309
g2
Ntp1102
Rp1103
(dp1104
g313
g132
sg314
F7.333333333333333
sg315
I2617
sg316
(lp1105
sg318
g341
sg320
I1
sbag0
(g309
g2
Ntp1106
Rp1107
(dp1108
g313
g96
sg314
F3.333333333333333
sg315
I2435
sg316
(lp1109
sg318
g319
sg320
I1
sbag0
(g309
g2
Ntp1110
Rp1111
(dp1112
g313
g278
sg314
F0.0
sg315
I2874
sg316
(lp1113
sg318
g319
sg320
I1
sbag0
(g309
g2
Ntp1114
Rp1115
(dp1116
g313
g31
sg314
F7.333333333333333
sg315
I2153
sg316
(lp1117
sg318
g319
sg320
I1
sbag0
(g309
g2
Ntp1118
Rp1119
(dp1120
g313
g58
sg314
F0.0
sg315
I2876
sg316
(lp1121
sg318
g319
sg320
I1
sbag0
(g309
g2
Ntp1122
Rp1123
(dp1124
g313
g128
sg314
F40.0
sg315
I2199
sg316
(lp1125
sg318
g319
sg320
I1
sbag0
(g309
g2
Ntp1126
Rp1127
(dp1128
g313
g190
sg314
F4.666666666666666
sg315
I2130
sg316
(lp1129
sg318
g319
sg320
I1
sbag0
(g309
g2
Ntp1130
Rp1131
(dp1132
g313
g148
sg314
F0.13333333333333333
sg315
I2675
sg316
(lp1133
sg318
g341
sg320
I1
sbag0
(g309
g2
Ntp1134
Rp1135
(dp1136
g313
g34
sg314
F0.6666666666666666
sg315
I2864
sg316
(lp1137
sg318
g341
sg320
I1
sbag0
(g309
g2
Ntp1138
Rp1139
(dp1140
g313
g218
sg314
F0.6666666666666666
sg315
I2129
sg316
(lp1141
sg318
g341
sg320
I1
sbag0
(g309
g2
Ntp1142
Rp1143
(dp1144
g313
g73
sg314
F0.0
sg315
I2837
sg316
(lp1145
sg318
g319
sg320
I1
sbag0
(g309
g2
Ntp1146
Rp1147
(dp1148
g313
g225
sg314
F0.13333333333333333
sg315
I1511
sg316
(lp1149
sg318
g341
sg320
I1
sbag0
(g309
g2
Ntp1150
Rp1151
(dp1152
g313
g35
sg314
F3.333333333333333
sg315
I2390
sg316
(lp1153
sg318
g341
sg320
I1
sbag0
(g309
g2
Ntp1154
Rp1155
(dp1156
g313
g178
sg314
F0.0
sg315
I2849
sg316
(lp1157
sg318
g319
sg320
I1
sbag0
(g309
g2
Ntp1158
Rp1159
(dp1160
g313
g304
sg314
F7.333333333333333
sg315
I2200
sg316
(lp1161
sg318
g341
sg320
I1
sbag0
(g309
g2
Ntp1162
Rp1163
(dp1164
g313
g294
sg314
F0.0
sg315
I2788
sg316
(lp1165
sg318
g341
sg320
I1
sbag0
(g309
g2
Ntp1166
Rp1167
(dp1168
g313
g48
sg314
F0.0
sg315
I2858
sg316
(lp1169
sg318
g319
sg320
I1
sbag0
(g309
g2
Ntp1170
Rp1171
(dp1172
g313
g146
sg314
F0.6666666666666666
sg315
I2682
sg316
(lp1173
sg318
g341
sg320
I1
sbag0
(g309
g2
Ntp1174
Rp1175
(dp1176
g313
g252
sg314
F3.333333333333333
sg315
I2711
sg316
(lp1177
sg318
g341
sg320
I1
sbag0
(g309
g2
Ntp1178
Rp1179
(dp1180
g313
g123
sg314
F9.333333333333332
sg315
I2761
sg316
(lp1181
sg318
g341
sg320
I1
sbag0
(g309
g2
Ntp1182
Rp1183
(dp1184
g313
g111
sg314
F42.266666666666666
sg315
I1885
sg316
(lp1185
sg318
g319
sg320
I1
sbag0
(g309
g2
Ntp1186
Rp1187
(dp1188
g313
g251
sg314
F4.666666666666666
sg315
I2622
sg316
(lp1189
sg318
g341
sg320
I1
sbag0
(g309
g2
Ntp1190
Rp1191
(dp1192
g313
g140
sg314
F7.333333333333333
sg315
I2818
sg316
(lp1193
sg318
g319
sg320
I1
sbag0
(g309
g2
Ntp1194
Rp1195
(dp1196
g313
g69
sg314
F0.6666666666666666
sg315
I2620
sg316
(lp1197
sg318
g341
sg320
I1
sbag0
(g309
g2
Ntp1198
Rp1199
(dp1200
g313
g56
sg314
F4.666666666666666
sg315
I2721
sg316
(lp1201
sg318
g319
sg320
I1
sbag0
(g309
g2
Ntp1202
Rp1203
(dp1204
g313
g247
sg314
F0.0
sg315
I2808
sg316
(lp1205
sg318
g319
sg320
I1
sbag0
(g309
g2
Ntp1206
Rp1207
(dp1208
g313
g122
sg314
F4.666666666666666
sg315
I2432
sg316
(lp1209
sg318
g319
sg320
I1
sbag0
(g309
g2
Ntp1210
Rp1211
(dp1212
g313
g42
sg314
F0.0
sg315
I2834
sg316
(lp1213
sg318
g319
sg320
I1
sbag0
(g309
g2
Ntp1214
Rp1215
(dp1216
g313
g199
sg314
F5.333333333333333
sg315
I2436
sg316
(lp1217
sg318
g319
sg320
I1
sbag0
(g309
g2
Ntp1218
Rp1219
(dp1220
g313
g206
sg314
F0.0
sg315
I2904
sg316
(lp1221
sg318
g319
sg320
I1
sbag0
(g309
g2
Ntp1222
Rp1223
(dp1224
g313
g79
sg314
F1.3333333333333333
sg315
I2002
sg316
(lp1225
sg318
g341
sg320
I1
sbag0
(g309
g2
Ntp1226
Rp1227
(dp1228
g313
g97
sg314
F447.0
sg315
I2704
sg316
(lp1229
sg318
g341
sg320
I1
sbag0
(g309
g2
Ntp1230
Rp1231
(dp1232
g313
g78
sg314
F2.6666666666666665
sg315
I2008
sg316
(lp1233
sg318
g341
sg320
I1
sbag0
(g309
g2
Ntp1234
Rp1235
(dp1236
g313
g279
sg314
F0.0
sg315
I2944
sg316
(lp1237
sg318
g319
sg320
I1
sbag0
(g309
g2
Ntp1238
Rp1239
(dp1240
g313
g90
sg314
F1.3333333333333333
sg315
I2073
sg316
(lp1241
sg318
g341
sg320
I1
sbag0
(g309
g2
Ntp1242
Rp1243
(dp1244
g313
g245
sg314
F0.0
sg315
I2954
sg316
(lp1245
sg318
g319
sg320
I1
sbag0
(g309
g2
Ntp1246
Rp1247
(dp1248
g313
g134
sg314
F0.001001001001001001
sg315
I2069
sg316
(lp1249
sg318
g341
sg320
I1
sbag0
(g309
g2
Ntp1250
Rp1251
(dp1252
g313
g181
sg314
F7.333333333333333
sg315
I2776
sg316
(lp1253
sg318
g341
sg320
I1
sbag0
(g309
g2
Ntp1254
Rp1255
(dp1256
g313
g88
sg314
F0.0
sg315
I2187
sg316
(lp1257
sg318
g341
sg320
I1
sbag0
(g309
g2
Ntp1258
Rp1259
(dp1260
g313
g133
sg314
F5.333333333333333
sg315
I2887
sg316
(lp1261
sg318
g341
sg320
I1
sbag0
(g309
g2
Ntp1262
Rp1263
(dp1264
g313
g153
sg314
F0.13333333333333333
sg315
I2540
sg316
(lp1265
sg318
g341
sg320
I1
sbag0
(g309
g2
Ntp1266
Rp1267
(dp1268
g313
g203
sg314
F1.3333333333333333
sg315
I2874
sg316
(lp1269
sg318
g341
sg320
I1
sbag0
(g309
g2
Ntp1270
Rp1271
(dp1272
g313
g89
sg314
F5.333333333333333
sg315
I2509
sg316
(lp1273
sg318
g341
sg320
I1
sbag0
(g309
g2
Ntp1274
Rp1275
(dp1276
g313
g124
sg314
F0.0
sg315
I2915
sg316
(lp1277
sg318
g319
sg320
I1
sbag0
(g309
g2
Ntp1278
Rp1279
(dp1280
g313
g105
sg314
F0.0
sg315
I2613
sg316
(lp1281
sg318
g341
sg320
I1
sbag0
(g309
g2
Ntp1282
Rp1283
(dp1284
g313
g285
sg314
F0.06666666666666667
sg315
I2732
sg316
(lp1285
sg318
g341
sg320
I1
sbag0
(g309
g2
Ntp1286
Rp1287
(dp1288
g313
g51
sg314
F2.6666666666666665
sg315
I2412
sg316
(lp1289
sg318
g341
sg320
I1
sbag0
(g309
g2
Ntp1290
Rp1291
(dp1292
g313
g156
sg314
F7.333333333333333
sg315
I2873
sg316
(lp1293
sg318
g341
sg320
I1
sbag0
(g309
g2
Ntp1294
Rp1295
(dp1296
g313
g165
sg314
F0.0
sg315
I2452
sg316
(lp1297
sg318
g341
sg320
I1
sbag0
(g309
g2
Ntp1298
Rp1299
(dp1300
g313
g170
sg314
F0.0
sg315
I2941
sg316
(lp1301
sg318
g319
sg320
I1
sbag0
(g309
g2
Ntp1302
Rp1303
(dp1304
g313
g92
sg314
F9.333333333333332
sg315
I2387
sg316
(lp1305
sg318
g319
sg320
I1
sbag0
(g309
g2
Ntp1306
Rp1307
(dp1308
g313
g139
sg314
F0.0
sg315
I2955
sg316
(lp1309
sg318
g319
sg320
I1
sbag0
(g309
g2
Ntp1310
Rp1311
(dp1312
g313
g120
sg314
F0.6666666666666666
sg315
I2332
sg316
(lp1313
sg318
g341
sg320
I1
sbag0
(g309
g2
Ntp1314
Rp1315
(dp1316
g313
g99
sg314
F7.333333333333333
sg315
I2912
sg316
(lp1317
sg318
g341
sg320
I1
sbag0
(g309
g2
Ntp1318
Rp1319
(dp1320
g313
g248
sg314
F0.0
sg315
I2518
sg316
(lp1321
sg318
g341
sg320
I1
sbag0
(g309
g2
Ntp1322
Rp1323
(dp1324
g313
g62
sg314
F9.333333333333332
sg315
I2933
sg316
(lp1325
sg318
g341
sg320
I1
sbag0
(g309
g2
Ntp1326
Rp1327
(dp1328
g313
g84
sg314
F4.666666666666666
sg315
I2508
sg316
(lp1329
sg318
g319
sg320
I1
sbag0
(g309
g2
Ntp1330
Rp1331
(dp1332
g313
g301
sg314
F0.0
sg315
I2973
sg316
(lp1333
sg318
g319
sg320
I1
sbag0
(g309
g2
Ntp1334
Rp1335
(dp1336
g313
g164
sg314
F3.333333333333333
sg315
I2193
sg316
(lp1337
sg318
g319
sg320
I1
sbag0
(g309
g2
Ntp1338
Rp1339
(dp1340
g313
g28
sg314
F0.0
sg315
I3027
sg316
(lp1341
sg318
g319
sg320
I1
sbag0
(g309
g2
Ntp1342
Rp1343
(dp1344
g313
g102
sg314
F4.666666666666666
sg315
I2130
sg316
(lp1345
sg318
g319
sg320
I1
sbag0
(g309
g2
Ntp1346
Rp1347
(dp1348
g313
g46
sg314
F1.0666666666666667
sg315
I1666
sg316
(lp1349
sg318
g341
sg320
I1
sbag0
(g309
g2
Ntp1350
Rp1351
(dp1352
g313
g224
sg314
F0.6666666666666666
sg315
I2826
sg316
(lp1353
sg318
g341
sg320
I1
sbag0
(g309
g2
Ntp1354
Rp1355
(dp1356
g313
g246
sg314
F1.3333333333333333
sg315
I2057
sg316
(lp1357
sg318
g341
sg320
I1
sbag0
(g309
g2
Ntp1358
Rp1359
(dp1360
g313
g55
sg314
F0.0
sg315
I2989
sg316
(lp1361
sg318
g319
sg320
I1
sbag0
(g309
g2
Ntp1362
Rp1363
(dp1364
g313
g291
sg314
F0.13333333333333333
sg315
I1949
sg316
(lp1365
sg318
g319
sg320
I1
sbag0
(g309
g2
Ntp1366
Rp1367
(dp1368
g313
g262
sg314
F0.6666666666666666
sg315
I2733
sg316
(lp1369
sg318
g319
sg320
I1
sbag0
(g309
g2
Ntp1370
Rp1371
(dp1372
g313
g60
sg314
F0.6666666666666666
sg315
I2788
sg316
(lp1373
sg318
g341
sg320
I1
sbag0
(g309
g2
Ntp1374
Rp1375
(dp1376
g313
g191
sg314
F4.666666666666666
sg315
I2409
sg316
(lp1377
sg318
g341
sg320
I1
sbag0
(g309
g2
Ntp1378
Rp1379
(dp1380
g313
g95
sg314
F9.333333333333332
sg315
I2953
sg316
(lp1381
sg318
g341
sg320
I1
sbag0
(g309
g2
Ntp1382
Rp1383
(dp1384
g313
g182
sg314
F0.0
sg315
I2629
sg316
(lp1385
sg318
g341
sg320
I1
sbag0
(g309
g2
Ntp1386
Rp1387
(dp1388
g313
g194
sg314
F0.0
sg315
I2959
sg316
(lp1389
sg318
g319
sg320
I1
sbag0
(g309
g2
Ntp1390
Rp1391
(dp1392
g313
g145
sg314
F6.666666666666666
sg315
I2347
sg316
(lp1393
sg318
g319
sg320
I1
sbag0
(g309
g2
Ntp1394
Rp1395
(dp1396
g313
g220
sg314
F6.666666666666666
sg315
I2787
sg316
(lp1397
sg318
g341
sg320
I1
sbag0
(g309
g2
Ntp1398
Rp1399
(dp1400
g313
g33
sg314
F6.666666666666666
sg315
I2297
sg316
(lp1401
sg318
g341
sg320
I1
sbag0
(g309
g2
Ntp1402
Rp1403
(dp1404
g313
g231
sg314
F4.666666666666666
sg315
I2510
sg316
(lp1405
sg318
g341
sg320
I1
sbag0
(g309
g2
Ntp1406
Rp1407
(dp1408
g313
g67
sg314
F0.6666666666666666
sg315
I2841
sg316
(lp1409
sg318
g341
sg320
I1
sbag0
(g309
g2
Ntp1410
Rp1411
(dp1412
g313
g184
sg314
F0.6666666666666666
sg315
I2862
sg316
(lp1413
sg318
g341
sg320
I1
sbag0
(g309
g2
Ntp1414
Rp1415
(dp1416
g313
g10
sg314
F0.13333333333333333
sg315
I2863
sg316
(lp1417
sg318
g341
sg320
I1
sbag0
(g309
g2
Ntp1418
Rp1419
(dp1420
g313
g138
sg314
F0.0
sg315
I2901
sg316
(lp1421
sg318
g319
sg320
I1
sbag0
(g309
g2
Ntp1422
Rp1423
(dp1424
g313
g83
sg314
F1.2000000000000002
sg315
I2958
sg316
(lp1425
sg318
g341
sg320
I1
sbag0
(g309
g2
Ntp1426
Rp1427
(dp1428
g313
g166
sg314
F6.666666666666666
sg315
I2142
sg316
(lp1429
sg318
g319
sg320
I1
sbag0
(g309
g2
Ntp1430
Rp1431
(dp1432
g313
g283
sg314
F0.0
sg315
I2997
sg316
(lp1433
sg318
g319
sg320
I1
sbag0
(g309
g2
Ntp1434
Rp1435
(dp1436
g313
g107
sg314
F2.6666666666666665
sg315
I2118
sg316
(lp1437
sg318
g341
sg320
I1
sbag0
(g309
g2
Ntp1438
Rp1439
(dp1440
g313
g290
sg314
F0.0
sg315
I3047
sg316
(lp1441
sg318
g319
sg320
I1
sbag0
(g309
g2
Ntp1442
Rp1443
(dp1444
g313
g131
sg314
F7.333333333333333
sg315
I2064
sg316
(lp1445
sg318
g319
sg320
I1
sbag0
(g309
g2
Ntp1446
Rp1447
(dp1448
g313
g269
sg314
F0.0
sg315
I3049
sg316
(lp1449
sg318
g319
sg320
I1
sbag0
(g309
g2
Ntp1450
Rp1451
(dp1452
g313
g188
sg314
F0.6666666666666666
sg315
I2040
sg316
(lp1453
sg318
g341
sg320
I1
sbag0
(g309
g2
Ntp1454
Rp1455
(dp1456
g313
g142
sg314
F9.333333333333332
sg315
I2590
sg316
(lp1457
sg318
g341
sg320
I1
sbag0
(g309
g2
Ntp1458
Rp1459
(dp1460
g313
g38
sg314
F0.0
sg315
I2532
sg316
(lp1461
sg318
g341
sg320
I1
sbag0
(g309
g2
Ntp1462
Rp1463
(dp1464
g313
g11
sg314
F9.333333333333332
sg315
I2910
sg316
(lp1465
sg318
g341
sg320
I1
sbag0
(g309
g2
Ntp1466
Rp1467
(dp1468
g313
g234
sg314
F3.333333333333333
sg315
I2488
sg316
(lp1469
sg318
g341
sg320
I1
sbag0
(g309
g2
Ntp1470
Rp1471
(dp1472
g313
g117
sg314
F1.3333333333333333
sg315
I2851
sg316
(lp1473
sg318
g319
sg320
I1
sbag0
(g309
g2
Ntp1474
Rp1475
(dp1476
g313
g202
sg314
F0.13333333333333333
sg315
I3005
sg316
(lp1477
sg318
g341
sg320
I1
sbag0
(g309
g2
Ntp1478
Rp1479
(dp1480
g313
g281
sg314
F0.0
sg315
I2998
sg316
(lp1481
sg318
g319
sg320
I1
sbag0
(g309
g2
Ntp1482
Rp1483
(dp1484
g313
g91
sg314
F0.6666666666666666
sg315
I2977
sg316
(lp1485
sg318
g341
sg320
I1
sbag0
(g309
g2
Ntp1486
Rp1487
(dp1488
g313
g61
sg314
F7.333333333333333
sg315
I2424
sg316
(lp1489
sg318
g319
sg320
I1
sbag0
(g309
g2
Ntp1490
Rp1491
(dp1492
g313
g277
sg314
F0.0
sg315
I3058
sg316
(lp1493
sg318
g319
sg320
I1
sbag0
(g309
g2
Ntp1494
Rp1495
(dp1496
g313
g68
sg314
F1.0666666666666667
sg315
I2480
sg316
(lp1497
sg318
g319
sg320
I1
sbag0
(g309
g2
Ntp1498
Rp1499
(dp1500
g313
g100
sg314
F0.13333333333333333
sg315
I3056
sg316
(lp1501
sg318
g341
sg320
I1
sbag0
(g309
g2
Ntp1502
Rp1503
(dp1504
g313
g126
sg314
F0.13333333333333333
sg315
I2495
sg316
(lp1505
sg318
g319
sg320
I1
sbasb.